target datalayout = "e-m:e-p270:32:32-p271:32:32-p272:64:64-i64:64-i128:128-f80:128-n8:16:32:64-S128"
target triple = "x86_64-pc-linux-gnu"

%struct._lv_cache_ops_t = type { ptr, ptr, ptr }
%struct._lv_cache_class_t = type { ptr, ptr, ptr, ptr, ptr, ptr, ptr, ptr, ptr, ptr, ptr }
%struct._lv_cache_t = type { ptr, i32, i32, i32, %struct._lv_cache_ops_t, i32, ptr }

; Function Attrs: nounwind uwtable
define ptr @lv_cache_create(ptr noundef %0, i64 noundef %1, i64 noundef %2, ptr noundef byval(%struct._lv_cache_ops_t) align 8 %3) #0 {
  %5 = alloca ptr, align 8
  %6 = alloca ptr, align 8
  %7 = alloca i64, align 8
  %8 = alloca i64, align 8
  %9 = alloca ptr, align 8
  %10 = alloca i32, align 4
  store ptr %0, ptr %6, align 8, !tbaa !3
  store i64 %1, ptr %7, align 8, !tbaa !7
  store i64 %2, ptr %8, align 8, !tbaa !7
  call void @llvm.lifetime.start.p0(i64 8, ptr %9) #4
  %11 = load ptr, ptr %6, align 8, !tbaa !3
  %12 = getelementptr inbounds nuw %struct._lv_cache_class_t, ptr %11, i32 0, i32 0
  %13 = load ptr, ptr %12, align 8, !tbaa !9
  %14 = call ptr %13()
  store ptr %14, ptr %9, align 8, !tbaa !3
  br label %15

15:                                               ; preds = %4
  %16 = load ptr, ptr %9, align 8, !tbaa !3
  %17 = icmp ne ptr %16, null
  br i1 %17, label %24, label %18

18:                                               ; preds = %15
  br label %19

19:                                               ; preds = %18
  br label %20

20:                                               ; preds = %19
  br label %21

21:                                               ; preds = %20
  br label %22

22:                                               ; preds = %23, %21
  br label %23

23:                                               ; preds = %22
  br label %22

24:                                               ; preds = %15
  br label %25

25:                                               ; preds = %24
  br label %26

26:                                               ; preds = %25
  %27 = load ptr, ptr %6, align 8, !tbaa !3
  %28 = load ptr, ptr %9, align 8, !tbaa !3
  %29 = getelementptr inbounds nuw %struct._lv_cache_t, ptr %28, i32 0, i32 0
  store ptr %27, ptr %29, align 8, !tbaa !11
  %30 = load i64, ptr %7, align 8, !tbaa !7
  %31 = trunc i64 %30 to i32
  %32 = load ptr, ptr %9, align 8, !tbaa !3
  %33 = getelementptr inbounds nuw %struct._lv_cache_t, ptr %32, i32 0, i32 1
  store i32 %31, ptr %33, align 8, !tbaa !15
  %34 = load i64, ptr %8, align 8, !tbaa !7
  %35 = trunc i64 %34 to i32
  %36 = load ptr, ptr %9, align 8, !tbaa !3
  %37 = getelementptr inbounds nuw %struct._lv_cache_t, ptr %36, i32 0, i32 2
  store i32 %35, ptr %37, align 4, !tbaa !16
  %38 = load ptr, ptr %9, align 8, !tbaa !3
  %39 = getelementptr inbounds nuw %struct._lv_cache_t, ptr %38, i32 0, i32 3
  store i32 0, ptr %39, align 8, !tbaa !17
  %40 = load ptr, ptr %9, align 8, !tbaa !3
  %41 = getelementptr inbounds nuw %struct._lv_cache_t, ptr %40, i32 0, i32 4
  call void @llvm.memcpy.p0.p0.i64(ptr align 8 %41, ptr align 8 %3, i64 24, i1 false), !tbaa.struct !18
  %42 = load ptr, ptr %9, align 8, !tbaa !3
  %43 = getelementptr inbounds nuw %struct._lv_cache_t, ptr %42, i32 0, i32 0
  %44 = load ptr, ptr %43, align 8, !tbaa !11
  %45 = getelementptr inbounds nuw %struct._lv_cache_class_t, ptr %44, i32 0, i32 1
  %46 = load ptr, ptr %45, align 8, !tbaa !19
  %47 = load ptr, ptr %9, align 8, !tbaa !3
  %48 = call zeroext i1 %46(ptr noundef %47)
  %49 = zext i1 %48 to i32
  %50 = icmp eq i32 %49, 0
  br i1 %50, label %51, label %56

51:                                               ; preds = %26
  br label %52

52:                                               ; preds = %51
  br label %53

53:                                               ; preds = %52
  br label %54

54:                                               ; preds = %53
  %55 = load ptr, ptr %9, align 8, !tbaa !3
  call void @lv_free(ptr noundef %55)
  store ptr null, ptr %5, align 8
  store i32 1, ptr %10, align 4
  br label %61

56:                                               ; preds = %26
  %57 = load ptr, ptr %9, align 8, !tbaa !3
  %58 = getelementptr inbounds nuw %struct._lv_cache_t, ptr %57, i32 0, i32 5
  %59 = call i32 @lv_mutex_init(ptr noundef %58)
  %60 = load ptr, ptr %9, align 8, !tbaa !3
  store ptr %60, ptr %5, align 8
  store i32 1, ptr %10, align 4
  br label %61

61:                                               ; preds = %56, %54
  call void @llvm.lifetime.end.p0(i64 8, ptr %9) #4
  %62 = load ptr, ptr %5, align 8
  ret ptr %62
}