; Function Attrs: nounwind uwtable
define ptr @lv_cache_create(ptr noundef %0, i64 noundef %1, i64 noundef %2, ptr nocapture noundef readonly byval(%struct._lv_cache_ops_t) align 8 %3) local_unnamed_addr #0 {
  %5 = load ptr, ptr %0, align 8, !tbaa !3
  %6 = tail call ptr %5() #5
  %.not = icmp eq ptr %6, null
  br i1 %.not, label %.preheader, label %7

.preheader:                                       ; preds = %4, %.preheader
  br label %.preheader

7:                                                ; preds = %4
  store ptr %0, ptr %6, align 8, !tbaa !8
  %8 = trunc i64 %1 to i32
  %9 = getelementptr inbounds nuw i8, ptr %6, i64 8
  store i32 %8, ptr %9, align 8, !tbaa !12
  %10 = trunc i64 %2 to i32
  %11 = getelementptr inbounds nuw i8, ptr %6, i64 12
  store i32 %10, ptr %11, align 4, !tbaa !13
  %12 = getelementptr inbounds nuw i8, ptr %6, i64 16
  store i32 0, ptr %12, align 8, !tbaa !14
  %13 = getelementptr inbounds nuw i8, ptr %6, i64 24
  call void @llvm.memcpy.p0.p0.i64(ptr noundef nonnull align 8 dereferenceable(24) %13, ptr noundef nonnull align 8 dereferenceable(24) %3, i64 24, i1 false), !tbaa.struct !15
  %14 = getelementptr inbounds nuw i8, ptr %0, i64 8
  %15 = load ptr, ptr %14, align 8, !tbaa !17
  %16 = tail call zeroext i1 %15(ptr noundef nonnull %6) #5
  br i1 %16, label %18, label %17

17:                                               ; preds = %7
  tail call void @lv_free(ptr noundef nonnull %6) #5
  br label %21

18:                                               ; preds = %7
  %19 = getelementptr inbounds nuw i8, ptr %6, i64 48
  %20 = tail call i32 @lv_mutex_init(ptr noundef nonnull %19) #5
  br label %21

21:                                               ; preds = %18, %17
  %.0 = phi ptr [ null, %17 ], [ %6, %18 ]
  ret ptr %.0
}